target datalayout = "e-m:e-p270:32:32-p271:32:32-p272:64:64-i64:64-i128:128-f80:128-n8:16:32:64-S128"
target triple = "x86_64-unknown-linux-gnu"

%"class.QuantLib::EndCriteria" = type { i64, i64, double, double, double }

; Function Attrs: mustprogress nounwind uwtable
define noundef zeroext i1 @_ZNK8QuantLib11EndCriteria21checkZeroGradientNormEdRNS0_4TypeE(ptr noundef nonnull align 8 dereferenceable(40) %this, double noundef %gradientNorm, ptr noundef nonnull align 4 dereferenceable(4) %ecType) #4 align 2 {
entry:
  %retval = alloca i1, align 1
  %this.addr = alloca ptr, align 8
  %gradientNorm.addr = alloca double, align 8
  %ecType.addr = alloca ptr, align 8
  store ptr %this, ptr %this.addr, align 8, !tbaa !3
  store double %gradientNorm, ptr %gradientNorm.addr, align 8, !tbaa !9
  store ptr %ecType, ptr %ecType.addr, align 8, !tbaa !3
  %this1 = load ptr, ptr %this.addr, align 8
  %0 = load double, ptr %gradientNorm.addr, align 8, !tbaa !9
  %gradientNormEpsilon_ = getelementptr inbounds nuw %"class.QuantLib::EndCriteria", ptr %this1, i32 0, i32 4
  %1 = load double, ptr %gradientNormEpsilon_, align 8, !tbaa !16
  %cmp = fcmp oge double %0, %1
  br i1 %cmp, label %if.then, label %if.end

if.then:                                          ; preds = %entry
  store i1 false, ptr %retval, align 1
  br label %return

if.end:                                           ; preds = %entry
  %2 = load ptr, ptr %ecType.addr, align 8, !tbaa !3
  store i32 5, ptr %2, align 4, !tbaa !19
  store i1 true, ptr %retval, align 1
  br label %return

return:                                           ; preds = %if.end, %if.then
  %3 = load i1, ptr %retval, align 1
  ret i1 %3
}