; Function Attrs: mustprogress nofree norecurse nosync nounwind willreturn memory(argmem: readwrite) uwtable
define noundef zeroext i1 @_ZNK8QuantLib11EndCriteria21checkZeroGradientNormEdRNS0_4TypeE(ptr nocapture noundef nonnull readonly align 8 dereferenceable(40) %this, double noundef %gradientNorm, ptr nocapture noundef nonnull writeonly align 4 dereferenceable(4) %ecType) local_unnamed_addr #6 align 2 {
entry:
  %gradientNormEpsilon_ = getelementptr inbounds nuw i8, ptr %this, i64 32
  %0 = load double, ptr %gradientNormEpsilon_, align 8, !tbaa !12
  %cmp = fcmp ult double %gradientNorm, %0
  br i1 %cmp, label %if.end, label %return

if.end:                                           ; preds = %entry
  store i32 5, ptr %ecType, align 4, !tbaa !25
  br label %return

return:                                           ; preds = %entry, %if.end
  ret i1 %cmp
}